; Function Attrs: mustprogress nofree norecurse nosync nounwind willreturn memory(argmem: write) uwtable
define void @_ZN7rocksdb16CompactionPickerC2ERKNS_16ImmutableOptionsEPKNS_21InternalKeyComparatorE(ptr noundef nonnull align 8 dereferenceable(128) initializes((0, 16), (24, 28), (32, 40)) %0, ptr noundef nonnull align 8 dereferenceable(849) %1, ptr noundef %2) unnamed_addr #8 align 2 personality ptr @__gxx_personality_v0 {
  store ptr getelementptr inbounds nuw inrange(-16, 56) (i8, ptr @_ZTVN7rocksdb16CompactionPickerE, i64 16), ptr %0, align 8, !tbaa !167
  %4 = getelementptr inbounds nuw i8, ptr %0, i64 8
  store ptr %1, ptr %4, align 8, !tbaa !169
  %5 = getelementptr inbounds nuw i8, ptr %0, i64 24
  store i32 0, ptr %5, align 8, !tbaa !171
  %6 = getelementptr inbounds nuw i8, ptr %0, i64 32
  store ptr null, ptr %6, align 8, !tbaa !176
  %7 = getelementptr inbounds nuw i8, ptr %0, i64 40
  store ptr %5, ptr %7, align 8, !tbaa !177
  %8 = getelementptr inbounds nuw i8, ptr %0, i64 48
  store ptr %5, ptr %8, align 8, !tbaa !178
  %9 = getelementptr inbounds nuw i8, ptr %0, i64 56
  store i64 0, ptr %9, align 8, !tbaa !179
  %10 = getelementptr inbounds nuw i8, ptr %0, i64 64
  %11 = getelementptr inbounds nuw i8, ptr %0, i64 112
  store ptr %11, ptr %10, align 8, !tbaa !180
  %12 = getelementptr inbounds nuw i8, ptr %0, i64 72
  store i64 1, ptr %12, align 8, !tbaa !182
  %13 = getelementptr inbounds nuw i8, ptr %0, i64 80
  %14 = getelementptr inbounds nuw i8, ptr %0, i64 96
  tail call void @llvm.memset.p0.i64(ptr noundef nonnull align 8 dereferenceable(16) %13, i8 0, i64 16, i1 false)
  store float 1.000000e+00, ptr %14, align 8, !tbaa !183
  %15 = getelementptr inbounds nuw i8, ptr %0, i64 104
  tail call void @llvm.memset.p0.i64(ptr noundef nonnull align 8 dereferenceable(16) %15, i8 0, i64 16, i1 false)
  %16 = getelementptr inbounds nuw i8, ptr %0, i64 120
  store ptr %2, ptr %16, align 8, !tbaa !184
  ret void
}